; Function Attrs: nounwind uwtable
define i32 @Gia_ManDualCompare(ptr noundef %0, ptr noundef readonly captures(none) %1, ptr noundef readonly captures(none) %2) local_unnamed_addr #0 {
  %4 = load i32, ptr %1, align 4
  %5 = load i32, ptr %2, align 4
  %6 = tail call i32 @Gia_ManHashXor(ptr noundef %0, i32 noundef %4, i32 noundef %5) #18
  %7 = getelementptr inbounds nuw i8, ptr %1, i64 4
  %8 = load i32, ptr %7, align 4
  %9 = tail call i32 @Gia_ManHashOr(ptr noundef %0, i32 noundef %8, i32 noundef %6) #18
  %10 = getelementptr inbounds nuw i8, ptr %2, i64 4
  %11 = load i32, ptr %10, align 4
  %12 = xor i32 %11, 1
  %13 = tail call i32 @Gia_ManHashAnd(ptr noundef %0, i32 noundef %12, i32 noundef %9) #18
  ret i32 %13
}